target datalayout = "e-m:e-p270:32:32-p271:32:32-p272:64:64-i64:64-i128:128-f80:128-n8:16:32:64-S128"
target triple = "x86_64-pc-linux-gnu"

%"struct.seq_util::rex::info" = type { i32, i8, i32, i32 }

; Function Attrs: mustprogress nounwind uwtable
define linkonce_odr hidden void @_ZN8seq_util3rex4infoC2Eb5lboolj(ptr noundef nonnull align 4 dereferenceable(16) %0, i1 noundef zeroext %1, i32 noundef %2, i32 noundef %3) unnamed_addr #6 comdat align 2 {
  %5 = alloca ptr, align 8
  %6 = alloca i8, align 1
  %7 = alloca i32, align 4
  %8 = alloca i32, align 4
  store ptr %0, ptr %5, align 8, !tbaa !301
  %9 = zext i1 %1 to i8
  store i8 %9, ptr %6, align 1, !tbaa !77
  store i32 %2, ptr %7, align 4, !tbaa !285
  store i32 %3, ptr %8, align 4, !tbaa !55
  %10 = load ptr, ptr %5, align 8
  %11 = getelementptr inbounds nuw %"struct.seq_util::rex::info", ptr %10, i32 0, i32 0
  store i32 1, ptr %11, align 4, !tbaa !302
  %12 = getelementptr inbounds nuw %"struct.seq_util::rex::info", ptr %10, i32 0, i32 1
  %13 = load i8, ptr %6, align 1, !tbaa !77, !range !78, !noundef !79
  %14 = trunc i8 %13 to i1
  %15 = zext i1 %14 to i8
  store i8 %15, ptr %12, align 4, !tbaa !303
  %16 = getelementptr inbounds nuw %"struct.seq_util::rex::info", ptr %10, i32 0, i32 2
  %17 = load i32, ptr %7, align 4, !tbaa !285
  store i32 %17, ptr %16, align 4, !tbaa !304
  %18 = getelementptr inbounds nuw %"struct.seq_util::rex::info", ptr %10, i32 0, i32 3
  %19 = load i32, ptr %8, align 4, !tbaa !55
  store i32 %19, ptr %18, align 4, !tbaa !283
  ret void
}

; Function Attrs: inlinehint mustprogress nounwind uwtable
define linkonce_odr noundef nonnull align 4 dereferenceable(4) ptr @_ZSt3minIjERKT_S2_S2_(ptr noundef nonnull align 4 dereferenceable(4) %0, ptr noundef nonnull align 4 dereferenceable(4) %1) #5 comdat {
  %3 = alloca ptr, align 8
  %4 = alloca ptr, align 8
  %5 = alloca ptr, align 8
  store ptr %0, ptr %4, align 8, !tbaa !53
  store ptr %1, ptr %5, align 8, !tbaa !53
  %6 = load ptr, ptr %5, align 8, !tbaa !53
  %7 = load i32, ptr %6, align 4, !tbaa !55
  %8 = load ptr, ptr %4, align 8, !tbaa !53
  %9 = load i32, ptr %8, align 4, !tbaa !55
  %10 = icmp ult i32 %7, %9
  br i1 %10, label %11, label %13

11:                                               ; preds = %2
  %12 = load ptr, ptr %5, align 8, !tbaa !53
  store ptr %12, ptr %3, align 8
  br label %15

13:                                               ; preds = %2
  %14 = load ptr, ptr %4, align 8, !tbaa !53
  store ptr %14, ptr %3, align 8
  br label %15

15:                                               ; preds = %13, %11
  %16 = load ptr, ptr %3, align 8
  ret ptr %16
}

; Function Attrs: mustprogress nounwind uwtable
define linkonce_odr hidden noundef zeroext i1 @_ZNK8seq_util3rex4info8is_knownEv(ptr noundef nonnull align 4 dereferenceable(16) %0) #6 comdat align 2 {
  %2 = alloca ptr, align 8
  store ptr %0, ptr %2, align 8, !tbaa !301
  %3 = load ptr, ptr %2, align 8
  %4 = getelementptr inbounds nuw %"struct.seq_util::rex::info", ptr %3, i32 0, i32 0
  %5 = load i32, ptr %4, align 4, !tbaa !302
  %6 = icmp eq i32 %5, 1
  ret i1 %6
}

; Function Attrs: mustprogress uwtable
define hidden { i64, i64 } @_ZNK8seq_util3rex4info4disjERKS1_(ptr noundef nonnull align 4 dereferenceable(16) %0, ptr noundef nonnull align 4 dereferenceable(16) %1) #4 align 2 {
  %3 = alloca %"struct.seq_util::rex::info", align 4
  %4 = alloca ptr, align 8
  %5 = alloca ptr, align 8
  store ptr %0, ptr %4, align 8, !tbaa !301
  store ptr %1, ptr %5, align 8, !tbaa !301
  %6 = load ptr, ptr %4, align 8
  %7 = call noundef zeroext i1 @_ZNK8seq_util3rex4info8is_knownEv(ptr noundef nonnull align 4 dereferenceable(16) %6)
  br i1 %7, label %11, label %8

8:                                                ; preds = %2
  %9 = load ptr, ptr %5, align 8, !tbaa !301
  %10 = call noundef zeroext i1 @_ZNK8seq_util3rex4info8is_knownEv(ptr noundef nonnull align 4 dereferenceable(16) %9)
  br i1 %10, label %11, label %50

11:                                               ; preds = %8, %2
  %12 = getelementptr inbounds nuw %"struct.seq_util::rex::info", ptr %6, i32 0, i32 1
  %13 = load i8, ptr %12, align 4, !tbaa !303, !range !78, !noundef !79
  %14 = trunc i8 %13 to i1
  br i1 %14, label %15, label %20

15:                                               ; preds = %11
  %16 = load ptr, ptr %5, align 8, !tbaa !301
  %17 = getelementptr inbounds nuw %"struct.seq_util::rex::info", ptr %16, i32 0, i32 1
  %18 = load i8, ptr %17, align 4, !tbaa !303, !range !78, !noundef !79
  %19 = trunc i8 %18 to i1
  br label %20

20:                                               ; preds = %15, %11
  %21 = phi i1 [ false, %11 ], [ %19, %15 ]
  %22 = getelementptr inbounds nuw %"struct.seq_util::rex::info", ptr %6, i32 0, i32 2
  %23 = load i32, ptr %22, align 4, !tbaa !304
  %24 = icmp eq i32 %23, 1
  br i1 %24, label %30, label %25

25:                                               ; preds = %20
  %26 = load ptr, ptr %5, align 8, !tbaa !301
  %27 = getelementptr inbounds nuw %"struct.seq_util::rex::info", ptr %26, i32 0, i32 2
  %28 = load i32, ptr %27, align 4, !tbaa !304
  %29 = icmp eq i32 %28, 1
  br i1 %29, label %30, label %31

30:                                               ; preds = %25, %20
  br label %43

31:                                               ; preds = %25
  %32 = getelementptr inbounds nuw %"struct.seq_util::rex::info", ptr %6, i32 0, i32 2
  %33 = load i32, ptr %32, align 4, !tbaa !304
  %34 = icmp eq i32 %33, -1
  br i1 %34, label %35, label %40

35:                                               ; preds = %31
  %36 = load ptr, ptr %5, align 8, !tbaa !301
  %37 = getelementptr inbounds nuw %"struct.seq_util::rex::info", ptr %36, i32 0, i32 2
  %38 = load i32, ptr %37, align 4, !tbaa !304
  %39 = icmp eq i32 %38, -1
  br label %40

40:                                               ; preds = %35, %31
  %41 = phi i1 [ false, %31 ], [ %39, %35 ]
  %42 = select i1 %41, i32 -1, i32 0
  br label %43

43:                                               ; preds = %40, %30
  %44 = phi i32 [ 1, %30 ], [ %42, %40 ]
  %45 = getelementptr inbounds nuw %"struct.seq_util::rex::info", ptr %6, i32 0, i32 3
  %46 = load ptr, ptr %5, align 8, !tbaa !301
  %47 = getelementptr inbounds nuw %"struct.seq_util::rex::info", ptr %46, i32 0, i32 3
  %48 = call noundef nonnull align 4 dereferenceable(4) ptr @_ZSt3minIjERKT_S2_S2_(ptr noundef nonnull align 4 dereferenceable(4) %45, ptr noundef nonnull align 4 dereferenceable(4) %47)
  %49 = load i32, ptr %48, align 4, !tbaa !55
  call void @_ZN8seq_util3rex4infoC2Eb5lboolj(ptr noundef nonnull align 4 dereferenceable(16) %3, i1 noundef zeroext %21, i32 noundef %44, i32 noundef %49)
  br label %52

50:                                               ; preds = %8
  %51 = load ptr, ptr %5, align 8, !tbaa !301
  call void @llvm.memcpy.p0.p0.i64(ptr align 4 %3, ptr align 4 %51, i64 16, i1 false), !tbaa.struct !284
  br label %52

52:                                               ; preds = %50, %43
  %53 = load { i64, i64 }, ptr %3, align 4
  ret { i64, i64 } %53
}