; Function Attrs: mustprogress nofree norecurse nosync nounwind willreturn memory(argmem: read) uwtable
define hidden { i64, i64 } @_ZNK8seq_util3rex4info4disjERKS1_(ptr noundef nonnull readonly align 4 captures(none) dereferenceable(16) %0, ptr noundef nonnull readonly align 4 captures(none) dereferenceable(16) %1) local_unnamed_addr #14 align 2 {
  %3 = load i32, ptr %0, align 4, !tbaa !208
  %4 = icmp eq i32 %3, 1
  %5 = load i32, ptr %1, align 4
  %6 = icmp eq i32 %5, 1
  %or.cond = select i1 %4, i1 true, i1 %6
  br i1 %or.cond, label %7, label %30

7:                                                ; preds = %2
  %8 = getelementptr inbounds nuw i8, ptr %0, i64 4
  %9 = load i8, ptr %8, align 4, !tbaa !209, !range !81, !noundef !82
  %10 = trunc nuw i8 %9 to i1
  %11 = getelementptr inbounds nuw i8, ptr %1, i64 4
  %12 = load i8, ptr %11, align 4, !range !81
  %13 = select i1 %10, i8 %12, i8 0
  %14 = getelementptr inbounds nuw i8, ptr %0, i64 8
  %15 = load i32, ptr %14, align 4, !tbaa !210
  %16 = icmp eq i32 %15, 1
  br i1 %16, label %24, label %17

17:                                               ; preds = %7
  %18 = getelementptr inbounds nuw i8, ptr %1, i64 8
  %19 = load i32, ptr %18, align 4, !tbaa !210
  %20 = icmp eq i32 %19, 1
  br i1 %20, label %24, label %21

21:                                               ; preds = %17
  %22 = and i32 %19, %15
  %narrow = icmp eq i32 %22, -1
  %23 = select i1 %narrow, i64 4294967295, i64 0
  br label %24

24:                                               ; preds = %7, %17, %21
  %.sroa.4.8.insert.ext = phi i64 [ %23, %21 ], [ 1, %17 ], [ 1, %7 ]
  %25 = getelementptr inbounds nuw i8, ptr %0, i64 12
  %26 = getelementptr inbounds nuw i8, ptr %1, i64 12
  %27 = load i32, ptr %26, align 4, !tbaa !29
  %28 = load i32, ptr %25, align 4, !tbaa !29
  %29 = tail call i32 @llvm.umin.i32(i32 %27, i32 %28)
  %.sroa.4.12.insert.ext = zext i32 %29 to i64
  %.sroa.4.12.insert.shift = shl nuw i64 %.sroa.4.12.insert.ext, 32
  %.sroa.4.12.insert.insert = or disjoint i64 %.sroa.4.12.insert.shift, %.sroa.4.8.insert.ext
  br label %32

30:                                               ; preds = %2
  %.sroa.0.0.copyload = load i64, ptr %1, align 4
  %.sroa.0.sroa.3.0.extract.shift = lshr i64 %.sroa.0.0.copyload, 32
  %.sroa.0.sroa.3.0.extract.trunc = trunc i64 %.sroa.0.sroa.3.0.extract.shift to i8
  %.sroa.0.sroa.4.0.extract.shift = and i64 %.sroa.0.0.copyload, -1099511627776
  %.sroa.4.0..sroa_idx = getelementptr inbounds nuw i8, ptr %1, i64 8
  %.sroa.4.0.copyload = load i64, ptr %.sroa.4.0..sroa_idx, align 4
  %31 = and i64 %.sroa.0.0.copyload, 4294967295
  br label %32

32:                                               ; preds = %30, %24
  %.sroa.0.sroa.4.sroa.0.0 = phi i64 [ 0, %24 ], [ %.sroa.0.sroa.4.0.extract.shift, %30 ]
  %.sroa.0.sroa.3.0 = phi i8 [ %13, %24 ], [ %.sroa.0.sroa.3.0.extract.trunc, %30 ]
  %.sroa.0.sroa.0.0 = phi i64 [ 1, %24 ], [ %31, %30 ]
  %.sroa.4.0 = phi i64 [ %.sroa.4.12.insert.insert, %24 ], [ %.sroa.4.0.copyload, %30 ]
  %.sroa.0.sroa.3.0.insert.ext = zext i8 %.sroa.0.sroa.3.0 to i64
  %.sroa.0.sroa.3.0.insert.shift = shl nuw nsw i64 %.sroa.0.sroa.3.0.insert.ext, 32
  %.sroa.0.sroa.3.0.insert.insert = or disjoint i64 %.sroa.0.sroa.3.0.insert.shift, %.sroa.0.sroa.4.sroa.0.0
  %.sroa.0.sroa.0.0.insert.insert = or disjoint i64 %.sroa.0.sroa.3.0.insert.insert, %.sroa.0.sroa.0.0
  %.fca.0.insert = insertvalue { i64, i64 } poison, i64 %.sroa.0.sroa.0.0.insert.insert, 0
  %.fca.1.insert = insertvalue { i64, i64 } %.fca.0.insert, i64 %.sroa.4.0, 1
  ret { i64, i64 } %.fca.1.insert
}